(dp0
Vengine
p1
Vlatex
p2
sVpackages
p3
c__builtin__
set
p4
((lp5
Vfancyhdr
p6
aVcolor
p7
aVfloat
p8
aVxy
p9
aVsubcaption
p10
aVparskip
p11
aVmulticol
p12
aVtitlesec
p13
aVepstopdf
p14
aVcaption
p15
aVbabel
p16
aVtype1ec
p17
aVinputenc
p18
aVlongtable
p19
aVmathpazo
p20
aVmoreverb
p21
aVmultirow
p22
aVappendix
p23
aVgraphicx
p24
aVhyperref
p25
aVgeometry
p26
aVlistings
p27
aVurl
p28
aVcolortbl
p29
aVfontenc
p30
aVlettrine
p31
atp32
Rp33
sVfiles_with_guttermarks
p34
g4
((lp35
V/Users/edumart/Desktop/asignaturas/TF_Plantilla/proyecto.tex
p36
aV/Users/edumart/Desktop/asignaturas/TF_Plantilla/./capitulo2.tex
p37
aV/Users/edumart/Desktop/asignaturas/TF_Plantilla/capitulo2.tex
p38
aV/Users/edumart/Desktop/asignaturas/TF_Plantilla/capitulo1.tex
p39
aV/Users/edumart/Desktop/asignaturas/TF_Plantilla/./proyecto.tex
p40
aVproyecto.tex
p41
aV/Users/edumart/Desktop/asignaturas/TF_Plantilla/./capitulo1.tex
p42
atp43
Rp44
sVsynctex
p45
I01
s.